target datalayout = "e-m:e-p270:32:32-p271:32:32-p272:64:64-i64:64-i128:128-f80:128-n8:16:32:64-S128"
target triple = "x86_64-pc-linux-gnu"

; Function Attrs: nounwind uwtable
define void @dt_gui_preferences_int_reset(ptr noundef %0) #0 {
  %2 = alloca ptr, align 8
  %3 = alloca ptr, align 8
  %4 = alloca i32, align 4
  store ptr %0, ptr %2, align 8, !tbaa !6
  call void @llvm.lifetime.start.p0(i64 8, ptr %3) #10
  %5 = load ptr, ptr %2, align 8, !tbaa !6
  %6 = call ptr @gtk_widget_get_name(ptr noundef %5)
  store ptr %6, ptr %3, align 8, !tbaa !73
  call void @llvm.lifetime.start.p0(i64 4, ptr %4) #10
  %7 = load ptr, ptr %3, align 8, !tbaa !73
  %8 = call i32 @dt_confgen_get_int(ptr noundef %7, i32 noundef 0)
  store i32 %8, ptr %4, align 4, !tbaa !57
  %9 = load ptr, ptr %2, align 8, !tbaa !6
  %10 = call i64 @gtk_spin_button_get_type() #11
  %11 = call ptr @g_type_check_instance_cast(ptr noundef %9, i64 noundef %10)
  %12 = load i32, ptr %4, align 4, !tbaa !57
  %13 = sitofp i32 %12 to double
  call void @gtk_spin_button_set_value(ptr noundef %11, double noundef %13)
  call void @llvm.lifetime.end.p0(i64 4, ptr %4) #10
  call void @llvm.lifetime.end.p0(i64 8, ptr %3) #10
  ret void
}